target datalayout = "e-m:e-p270:32:32-p271:32:32-p272:64:64-i64:64-i128:128-f80:128-n8:16:32:64-S128"
target triple = "x86_64-pc-linux-gnu"

%struct.camelsrt_info_t = type { i32, ptr, i8, [10 x i8], [10 x %struct.camelsrt_msginfo_t] }
%struct.camelsrt_msginfo_t = type { i8, i8, i8, %struct.nstime_t, %struct.nstime_t }
%struct.nstime_t = type { i64, i32 }
%struct.camelsrt_call_info_key_t = type { i32 }
%struct.camelsrt_call_t = type { i32, ptr, [10 x %struct.camelsrt_category_t] }
%struct.camelsrt_category_t = type { i32, i32, %struct.nstime_t, i8 }
%struct.tcaphash_context_t = type { ptr, i32, i32, i32, %struct.nstime_t, %struct.nstime_t, i8, i8, i8, i8, [24 x i8], i8, ptr, ptr, ptr, ptr, ptr, ptr }
%struct._packet_info = type { ptr, ptr, i32, i32, %struct.nstime_t, %struct.nstime_t, %struct.nstime_t, i8, ptr, ptr, ptr, ptr, %struct._address, %struct._address, %struct._address, %struct._address, %struct._address, %struct._address, i32, ptr, i8, [3 x i8], %struct.anon.0, i32, i32, i32, i32, ptr, i8, ptr, ptr, i16, i16, i32, i32, i16, i32, i32, ptr, ptr, ptr, i8, i8, i16, i16, i16, i32, i16, i16, ptr, ptr, ptr, ptr, ptr, i32, i32 }
%struct._address = type { i32, i32, ptr, ptr }
%struct.anon.0 = type { i8, [3 x i8] }

@srt_calls = internal global ptr null, align 8
@camelsrt_global_SessionId = internal global i32 1, align 4

; Function Attrs: alwaysinline nounwind
define internal ptr @memset.inline(ptr %0, i32 %1, i64 %2) #4 {
  %4 = alloca ptr, align 8
  %5 = alloca i32, align 4
  %6 = alloca i64, align 8
  store ptr %0, ptr %4, align 8
  store i32 %1, ptr %5, align 4
  store i64 %2, ptr %6, align 8
  %7 = load ptr, ptr %4, align 8
  %8 = load i32, ptr %5, align 4
  %9 = load i64, ptr %6, align 8
  %10 = load ptr, ptr %4, align 8
  %11 = call i64 @llvm.objectsize.i64.p0(ptr %10, i1 false, i1 true, i1 true)
  %12 = call ptr @__memset_chk(ptr noundef %7, i32 noundef %8, i64 noundef %9, i64 noundef %11) #11
  ret ptr %12
}

; Function Attrs: nounwind null_pointer_is_valid sspstrong uwtable
define internal void @raz_camelsrt_call(ptr noundef %0) #2 {
  %2 = alloca ptr, align 8
  store ptr %0, ptr %2, align 8
  %3 = load ptr, ptr %2, align 8
  %4 = call ptr @memset.inline(ptr noundef %3, i32 noundef 0, i64 noundef 336) #11
  ret void
}

; Function Attrs: nounwind null_pointer_is_valid sspstrong uwtable
define internal void @update_camelsrt_call(ptr noundef %0, ptr noundef %1, i32 noundef %2) #2 {
  %4 = alloca ptr, align 8
  %5 = alloca ptr, align 8
  %6 = alloca i32, align 4
  store ptr %0, ptr %4, align 8
  store ptr %1, ptr %5, align 8
  store i32 %2, ptr %6, align 4
  %7 = load ptr, ptr %5, align 8
  %8 = getelementptr inbounds nuw %struct._packet_info, ptr %7, i32 0, i32 3
  %9 = load i32, ptr %8, align 4
  %10 = load ptr, ptr %4, align 8
  %11 = getelementptr inbounds nuw %struct.camelsrt_call_t, ptr %10, i32 0, i32 2
  %12 = load i32, ptr %6, align 4
  %13 = zext i32 %12 to i64
  %14 = getelementptr [10 x %struct.camelsrt_category_t], ptr %11, i64 0, i64 %13
  %15 = getelementptr inbounds nuw %struct.camelsrt_category_t, ptr %14, i32 0, i32 0
  store i32 %9, ptr %15, align 8
  %16 = load ptr, ptr %4, align 8
  %17 = getelementptr inbounds nuw %struct.camelsrt_call_t, ptr %16, i32 0, i32 2
  %18 = load i32, ptr %6, align 4
  %19 = zext i32 %18 to i64
  %20 = getelementptr [10 x %struct.camelsrt_category_t], ptr %17, i64 0, i64 %19
  %21 = getelementptr inbounds nuw %struct.camelsrt_category_t, ptr %20, i32 0, i32 1
  store i32 0, ptr %21, align 4
  %22 = load ptr, ptr %4, align 8
  %23 = getelementptr inbounds nuw %struct.camelsrt_call_t, ptr %22, i32 0, i32 2
  %24 = load i32, ptr %6, align 4
  %25 = zext i32 %24 to i64
  %26 = getelementptr [10 x %struct.camelsrt_category_t], ptr %23, i64 0, i64 %25
  %27 = getelementptr inbounds nuw %struct.camelsrt_category_t, ptr %26, i32 0, i32 3
  store i8 0, ptr %27, align 8
  %28 = load ptr, ptr %4, align 8
  %29 = getelementptr inbounds nuw %struct.camelsrt_call_t, ptr %28, i32 0, i32 2
  %30 = load i32, ptr %6, align 4
  %31 = zext i32 %30 to i64
  %32 = getelementptr [10 x %struct.camelsrt_category_t], ptr %29, i64 0, i64 %31
  %33 = getelementptr inbounds nuw %struct.camelsrt_category_t, ptr %32, i32 0, i32 2
  %34 = load ptr, ptr %5, align 8
  %35 = getelementptr inbounds nuw %struct._packet_info, ptr %34, i32 0, i32 4
  call void @llvm.memcpy.p0.p0.i64(ptr align 8 %33, ptr align 8 %35, i64 16, i1 false)
  ret void
}

; Function Attrs: null_pointer_is_valid sspstrong uwtable
define internal ptr @new_camelsrt_call(ptr noundef %0) #0 {
  %2 = alloca ptr, align 8
  %3 = alloca ptr, align 8
  %4 = alloca ptr, align 8
  store ptr %0, ptr %2, align 8
  call void @llvm.lifetime.start.p0(i64 8, ptr %3) #11
  call void @llvm.lifetime.start.p0(i64 8, ptr %4) #11
  store ptr null, ptr %4, align 8
  %5 = call ptr @wmem_file_scope()
  %6 = call noalias ptr @wmem_alloc(ptr noundef %5, i64 noundef 4) #12
  store ptr %6, ptr %3, align 8
  %7 = load ptr, ptr %2, align 8
  %8 = getelementptr inbounds nuw %struct.camelsrt_call_info_key_t, ptr %7, i32 0, i32 0
  %9 = load i32, ptr %8, align 4
  %10 = load ptr, ptr %3, align 8
  %11 = getelementptr inbounds nuw %struct.camelsrt_call_info_key_t, ptr %10, i32 0, i32 0
  store i32 %9, ptr %11, align 4
  %12 = call ptr @wmem_file_scope()
  %13 = call noalias ptr @wmem_alloc(ptr noundef %12, i64 noundef 336) #12
  store ptr %13, ptr %4, align 8
  %14 = load ptr, ptr %4, align 8
  call void @raz_camelsrt_call(ptr noundef %14)
  %15 = load i32, ptr @camelsrt_global_SessionId, align 4
  %16 = add i32 %15, 1
  store i32 %16, ptr @camelsrt_global_SessionId, align 4
  %17 = load ptr, ptr %4, align 8
  %18 = getelementptr inbounds nuw %struct.camelsrt_call_t, ptr %17, i32 0, i32 0
  store i32 %15, ptr %18, align 8
  %19 = load ptr, ptr @srt_calls, align 8
  %20 = load ptr, ptr %3, align 8
  %21 = load ptr, ptr %4, align 8
  %22 = call ptr @wmem_map_insert(ptr noundef %19, ptr noundef %20, ptr noundef %21)
  %23 = load ptr, ptr %4, align 8
  call void @llvm.lifetime.end.p0(i64 8, ptr %4) #11
  call void @llvm.lifetime.end.p0(i64 8, ptr %3) #11
  ret ptr %23
}

; Function Attrs: null_pointer_is_valid sspstrong uwtable
define internal void @camelsrt_begin_call_matching(ptr noundef %0, ptr noundef %1) #0 {
  %3 = alloca ptr, align 8
  %4 = alloca ptr, align 8
  %5 = alloca ptr, align 8
  %6 = alloca %struct.camelsrt_call_info_key_t, align 4
  store ptr %0, ptr %3, align 8
  store ptr %1, ptr %4, align 8
  call void @llvm.lifetime.start.p0(i64 8, ptr %5) #11
  call void @llvm.lifetime.start.p0(i64 4, ptr %6) #11
  %7 = load ptr, ptr %4, align 8
  %8 = getelementptr inbounds nuw %struct.camelsrt_info_t, ptr %7, i32 0, i32 3
  %9 = getelementptr [10 x i8], ptr %8, i64 0, i64 1
  store i8 1, ptr %9, align 1
  %10 = load ptr, ptr %4, align 8
  %11 = getelementptr inbounds nuw %struct.camelsrt_info_t, ptr %10, i32 0, i32 0
  %12 = load i32, ptr %11, align 8
  %13 = getelementptr inbounds nuw %struct.camelsrt_call_info_key_t, ptr %6, i32 0, i32 0
  store i32 %12, ptr %13, align 4
  %14 = load ptr, ptr @srt_calls, align 8
  %15 = call ptr @wmem_map_lookup(ptr noundef %14, ptr noundef %6)
  store ptr %15, ptr %5, align 8
  %16 = load ptr, ptr %5, align 8
  %17 = icmp ne ptr %16, null
  br i1 %17, label %18, label %19

18:                                               ; preds = %2
  br label %32

19:                                               ; preds = %2
  %20 = call ptr @new_camelsrt_call(ptr noundef %6)
  store ptr %20, ptr %5, align 8
  %21 = load ptr, ptr %4, align 8
  %22 = getelementptr inbounds nuw %struct.camelsrt_info_t, ptr %21, i32 0, i32 1
  %23 = load ptr, ptr %22, align 8
  %24 = load ptr, ptr %5, align 8
  %25 = getelementptr inbounds nuw %struct.camelsrt_call_t, ptr %24, i32 0, i32 1
  store ptr %23, ptr %25, align 8
  %26 = load ptr, ptr %5, align 8
  %27 = load ptr, ptr %3, align 8
  call void @update_camelsrt_call(ptr noundef %26, ptr noundef %27, i32 noundef 1)
  %28 = load ptr, ptr %5, align 8
  %29 = getelementptr inbounds nuw %struct.camelsrt_call_t, ptr %28, i32 0, i32 1
  %30 = load ptr, ptr %29, align 8
  %31 = getelementptr inbounds nuw %struct.tcaphash_context_t, ptr %30, i32 0, i32 13
  store ptr @camelsrt_tcap_matching, ptr %31, align 8
  br label %32

32:                                               ; preds = %19, %18
  call void @llvm.lifetime.end.p0(i64 4, ptr %6) #11
  call void @llvm.lifetime.end.p0(i64 8, ptr %5) #11
  ret void
}