; Function Attrs: null_pointer_is_valid sspstrong uwtable
define internal fastcc void @camelsrt_begin_call_matching(ptr noundef readonly captures(none) %0, ptr noundef captures(none) initializes((18, 19)) %1) unnamed_addr #0 {
  %3 = alloca %struct.camelsrt_call_info_key_t, align 4
  call void @llvm.lifetime.start.p0(i64 4, ptr nonnull %3) #12
  %4 = getelementptr i8, ptr %1, i64 18
  store i8 1, ptr %4, align 1
  %5 = load i32, ptr %1, align 8
  store i32 %5, ptr %3, align 4
  %6 = load ptr, ptr @srt_calls, align 8
  %7 = call ptr @wmem_map_lookup(ptr noundef %6, ptr noundef nonnull %3)
  %.not = icmp eq ptr %7, null
  br i1 %.not, label %8, label %30

8:                                                ; preds = %2
  %9 = call ptr @wmem_file_scope()
  %10 = call noalias dereferenceable_or_null(4) ptr @wmem_alloc(ptr noundef %9, i64 noundef 4) #13
  %11 = load i32, ptr %3, align 4
  store i32 %11, ptr %10, align 4
  %12 = call ptr @wmem_file_scope()
  %13 = call noalias dereferenceable_or_null(336) ptr @wmem_alloc(ptr noundef %12, i64 noundef 336) #13
  %14 = getelementptr inbounds nuw i8, ptr %13, i64 4
  call void @llvm.memset.p0.i64(ptr noundef nonnull align 1 dereferenceable(336) %14, i8 noundef 0, i64 noundef 332, i1 noundef false) #12
  %15 = load i32, ptr @camelsrt_global_SessionId, align 4
  %16 = add i32 %15, 1
  store i32 %16, ptr @camelsrt_global_SessionId, align 4
  store i32 %15, ptr %13, align 8
  %17 = load ptr, ptr @srt_calls, align 8
  %18 = call ptr @wmem_map_insert(ptr noundef %17, ptr noundef %10, ptr noundef %13)
  %19 = getelementptr inbounds nuw i8, ptr %1, i64 8
  %20 = load ptr, ptr %19, align 8
  %21 = getelementptr inbounds nuw i8, ptr %13, i64 8
  store ptr %20, ptr %21, align 8
  %22 = getelementptr inbounds nuw i8, ptr %0, i64 20
  %23 = load i32, ptr %22, align 4
  %24 = getelementptr i8, ptr %13, i64 48
  store i32 %23, ptr %24, align 8
  %25 = getelementptr i8, ptr %13, i64 52
  store i32 0, ptr %25, align 4
  %26 = getelementptr i8, ptr %13, i64 72
  store i8 0, ptr %26, align 8
  %27 = getelementptr i8, ptr %13, i64 56
  %28 = getelementptr inbounds nuw i8, ptr %0, i64 24
  call void @llvm.memcpy.p0.p0.i64(ptr noundef nonnull align 8 dereferenceable(16) %27, ptr noundef nonnull readonly align 8 dereferenceable(16) %28, i64 16, i1 false)
  %29 = getelementptr inbounds nuw i8, ptr %20, i64 96
  store ptr @camelsrt_tcap_matching, ptr %29, align 8
  br label %30

30:                                               ; preds = %2, %8
  call void @llvm.lifetime.end.p0(i64 4, ptr nonnull %3) #12
  ret void
}